target datalayout = "e-m:e-p270:32:32-p271:32:32-p272:64:64-i64:64-i128:128-f80:128-n8:16:32:64-S128"
target triple = "x86_64-pc-linux-gnu"

%class.Jipopt = type { %"class.Ipopt::TNLP.base", ptr, ptr, i32, i32, i32, i32, i32, ptr, ptr, ptr, ptr, ptr, ptr, ptr, ptr, ptr, i8, i8, %"class.Ipopt::SmartPtr", ptr, ptr, ptr, ptr, ptr, ptr, ptr, ptr, ptr, ptr, ptr }
%"class.Ipopt::TNLP.base" = type { %"class.Ipopt::ReferencedObject.base" }
%"class.Ipopt::ReferencedObject.base" = type <{ ptr, i32 }>
%"class.Ipopt::SmartPtr" = type { ptr }
%struct.JNIEnv_ = type { ptr }
%struct.JNINativeInterface_ = type { ptr, ptr, ptr, ptr, ptr, ptr, ptr, ptr, ptr, ptr, ptr, ptr, ptr, ptr, ptr, ptr, ptr, ptr, ptr, ptr, ptr, ptr, ptr, ptr, ptr, ptr, ptr, ptr, ptr, ptr, ptr, ptr, ptr, ptr, ptr, ptr, ptr, ptr, ptr, ptr, ptr, ptr, ptr, ptr, ptr, ptr, ptr, ptr, ptr, ptr, ptr, ptr, ptr, ptr, ptr, ptr, ptr, ptr, ptr, ptr, ptr, ptr, ptr, ptr, ptr, ptr, ptr, ptr, ptr, ptr, ptr, ptr, ptr, ptr, ptr, ptr, ptr, ptr, ptr, ptr, ptr, ptr, ptr, ptr, ptr, ptr, ptr, ptr, ptr, ptr, ptr, ptr, ptr, ptr, ptr, ptr, ptr, ptr, ptr, ptr, ptr, ptr, ptr, ptr, ptr, ptr, ptr, ptr, ptr, ptr, ptr, ptr, ptr, ptr, ptr, ptr, ptr, ptr, ptr, ptr, ptr, ptr, ptr, ptr, ptr, ptr, ptr, ptr, ptr, ptr, ptr, ptr, ptr, ptr, ptr, ptr, ptr, ptr, ptr, ptr, ptr, ptr, ptr, ptr, ptr, ptr, ptr, ptr, ptr, ptr, ptr, ptr, ptr, ptr, ptr, ptr, ptr, ptr, ptr, ptr, ptr, ptr, ptr, ptr, ptr, ptr, ptr, ptr, ptr, ptr, ptr, ptr, ptr, ptr, ptr, ptr, ptr, ptr, ptr, ptr, ptr, ptr, ptr, ptr, ptr, ptr, ptr, ptr, ptr, ptr, ptr, ptr, ptr, ptr, ptr, ptr, ptr, ptr, ptr, ptr, ptr, ptr, ptr, ptr, ptr, ptr, ptr, ptr, ptr, ptr, ptr, ptr, ptr, ptr, ptr, ptr, ptr, ptr, ptr, ptr, ptr, ptr, ptr, ptr, ptr, ptr, ptr, ptr, ptr, ptr, ptr, ptr, ptr, ptr }

; Function Attrs: mustprogress uwtable
define linkonce_odr void @_ZN7JNIEnv_20GetDoubleArrayRegionEP13_jdoubleArrayiiPd(ptr noundef nonnull align 8 dereferenceable(8) %0, ptr noundef %1, i32 noundef %2, i32 noundef %3, ptr noundef %4) #4 comdat align 2 {
  %6 = alloca ptr, align 8
  %7 = alloca ptr, align 8
  %8 = alloca i32, align 4
  %9 = alloca i32, align 4
  %10 = alloca ptr, align 8
  store ptr %0, ptr %6, align 8, !tbaa !8
  store ptr %1, ptr %7, align 8, !tbaa !101
  store i32 %2, ptr %8, align 4, !tbaa !12
  store i32 %3, ptr %9, align 4, !tbaa !12
  store ptr %4, ptr %10, align 8, !tbaa !99
  %11 = load ptr, ptr %6, align 8
  %12 = getelementptr inbounds nuw %struct.JNIEnv_, ptr %11, i32 0, i32 0
  %13 = load ptr, ptr %12, align 8, !tbaa !84
  %14 = getelementptr inbounds nuw %struct.JNINativeInterface_, ptr %13, i32 0, i32 206
  %15 = load ptr, ptr %14, align 8, !tbaa !106
  %16 = load ptr, ptr %7, align 8, !tbaa !101
  %17 = load i32, ptr %8, align 4, !tbaa !12
  %18 = load i32, ptr %9, align 4, !tbaa !12
  %19 = load ptr, ptr %10, align 8, !tbaa !99
  call void %15(ptr noundef %11, ptr noundef %16, i32 noundef %17, i32 noundef %18, ptr noundef %19)
  ret void
}

; Function Attrs: mustprogress uwtable
define linkonce_odr void @_ZN7JNIEnv_20SetDoubleArrayRegionEP13_jdoubleArrayiiPKd(ptr noundef nonnull align 8 dereferenceable(8) %0, ptr noundef %1, i32 noundef %2, i32 noundef %3, ptr noundef %4) #4 comdat align 2 {
  %6 = alloca ptr, align 8
  %7 = alloca ptr, align 8
  %8 = alloca i32, align 4
  %9 = alloca i32, align 4
  %10 = alloca ptr, align 8
  store ptr %0, ptr %6, align 8, !tbaa !8
  store ptr %1, ptr %7, align 8, !tbaa !101
  store i32 %2, ptr %8, align 4, !tbaa !12
  store i32 %3, ptr %9, align 4, !tbaa !12
  store ptr %4, ptr %10, align 8, !tbaa !99
  %11 = load ptr, ptr %6, align 8
  %12 = getelementptr inbounds nuw %struct.JNIEnv_, ptr %11, i32 0, i32 0
  %13 = load ptr, ptr %12, align 8, !tbaa !84
  %14 = getelementptr inbounds nuw %struct.JNINativeInterface_, ptr %13, i32 0, i32 214
  %15 = load ptr, ptr %14, align 8, !tbaa !107
  %16 = load ptr, ptr %7, align 8, !tbaa !101
  %17 = load i32, ptr %8, align 4, !tbaa !12
  %18 = load i32, ptr %9, align 4, !tbaa !12
  %19 = load ptr, ptr %10, align 8, !tbaa !99
  call void %15(ptr noundef %11, ptr noundef %16, i32 noundef %17, i32 noundef %18, ptr noundef %19)
  ret void
}

; Function Attrs: mustprogress uwtable
define void @_ZN6Jipopt17finalize_solutionEN5Ipopt12SolverReturnEiPKdS3_S3_iS3_S3_dPKNS0_9IpoptDataEPNS0_25IpoptCalculatedQuantitiesE(ptr noundef nonnull align 8 dereferenceable(232) %0, i32 noundef %1, i32 noundef %2, ptr noundef %3, ptr noundef %4, ptr noundef %5, i32 noundef %6, ptr noundef %7, ptr noundef %8, double noundef %9, ptr noundef %10, ptr noundef %11) unnamed_addr #4 align 2 {
  %13 = alloca ptr, align 8
  %14 = alloca i32, align 4
  %15 = alloca i32, align 4
  %16 = alloca ptr, align 8
  %17 = alloca ptr, align 8
  %18 = alloca ptr, align 8
  %19 = alloca i32, align 4
  %20 = alloca ptr, align 8
  %21 = alloca ptr, align 8
  %22 = alloca double, align 8
  %23 = alloca ptr, align 8
  %24 = alloca ptr, align 8
  store ptr %0, ptr %13, align 8, !tbaa !3
  store i32 %1, ptr %14, align 4, !tbaa !114
  store i32 %2, ptr %15, align 4, !tbaa !12
  store ptr %3, ptr %16, align 8, !tbaa !99
  store ptr %4, ptr %17, align 8, !tbaa !99
  store ptr %5, ptr %18, align 8, !tbaa !99
  store i32 %6, ptr %19, align 4, !tbaa !12
  store ptr %7, ptr %20, align 8, !tbaa !99
  store ptr %8, ptr %21, align 8, !tbaa !99
  store double %9, ptr %22, align 8, !tbaa !112
  store ptr %10, ptr %23, align 8, !tbaa !116
  store ptr %11, ptr %24, align 8, !tbaa !117
  %25 = load ptr, ptr %13, align 8
  %26 = load ptr, ptr %16, align 8, !tbaa !99
  %27 = icmp ne ptr %26, null
  br i1 %27, label %28, label %35

28:                                               ; preds = %12
  %29 = getelementptr inbounds nuw %class.Jipopt, ptr %25, i32 0, i32 1
  %30 = load ptr, ptr %29, align 8, !tbaa !16
  %31 = getelementptr inbounds nuw %class.Jipopt, ptr %25, i32 0, i32 11
  %32 = load ptr, ptr %31, align 8, !tbaa !33
  %33 = load i32, ptr %15, align 4, !tbaa !12
  %34 = load ptr, ptr %16, align 8, !tbaa !99
  call void @_ZN7JNIEnv_20SetDoubleArrayRegionEP13_jdoubleArrayiiPKd(ptr noundef nonnull align 8 dereferenceable(8) %30, ptr noundef %32, i32 noundef 0, i32 noundef %33, ptr noundef %34)
  br label %35

35:                                               ; preds = %28, %12
  %36 = load ptr, ptr %17, align 8, !tbaa !99
  %37 = icmp ne ptr %36, null
  br i1 %37, label %38, label %45

38:                                               ; preds = %35
  %39 = getelementptr inbounds nuw %class.Jipopt, ptr %25, i32 0, i32 1
  %40 = load ptr, ptr %39, align 8, !tbaa !16
  %41 = getelementptr inbounds nuw %class.Jipopt, ptr %25, i32 0, i32 9
  %42 = load ptr, ptr %41, align 8, !tbaa !31
  %43 = load i32, ptr %15, align 4, !tbaa !12
  %44 = load ptr, ptr %17, align 8, !tbaa !99
  call void @_ZN7JNIEnv_20SetDoubleArrayRegionEP13_jdoubleArrayiiPKd(ptr noundef nonnull align 8 dereferenceable(8) %40, ptr noundef %42, i32 noundef 0, i32 noundef %43, ptr noundef %44)
  br label %45

45:                                               ; preds = %38, %35
  %46 = load ptr, ptr %18, align 8, !tbaa !99
  %47 = icmp ne ptr %46, null
  br i1 %47, label %48, label %55

48:                                               ; preds = %45
  %49 = getelementptr inbounds nuw %class.Jipopt, ptr %25, i32 0, i32 1
  %50 = load ptr, ptr %49, align 8, !tbaa !16
  %51 = getelementptr inbounds nuw %class.Jipopt, ptr %25, i32 0, i32 10
  %52 = load ptr, ptr %51, align 8, !tbaa !32
  %53 = load i32, ptr %15, align 4, !tbaa !12
  %54 = load ptr, ptr %18, align 8, !tbaa !99
  call void @_ZN7JNIEnv_20SetDoubleArrayRegionEP13_jdoubleArrayiiPKd(ptr noundef nonnull align 8 dereferenceable(8) %50, ptr noundef %52, i32 noundef 0, i32 noundef %53, ptr noundef %54)
  br label %55

55:                                               ; preds = %48, %45
  %56 = load ptr, ptr %20, align 8, !tbaa !99
  %57 = icmp ne ptr %56, null
  br i1 %57, label %58, label %65

58:                                               ; preds = %55
  %59 = getelementptr inbounds nuw %class.Jipopt, ptr %25, i32 0, i32 1
  %60 = load ptr, ptr %59, align 8, !tbaa !16
  %61 = getelementptr inbounds nuw %class.Jipopt, ptr %25, i32 0, i32 14
  %62 = load ptr, ptr %61, align 8, !tbaa !36
  %63 = load i32, ptr %19, align 4, !tbaa !12
  %64 = load ptr, ptr %20, align 8, !tbaa !99
  call void @_ZN7JNIEnv_20SetDoubleArrayRegionEP13_jdoubleArrayiiPKd(ptr noundef nonnull align 8 dereferenceable(8) %60, ptr noundef %62, i32 noundef 0, i32 noundef %63, ptr noundef %64)
  br label %65

65:                                               ; preds = %58, %55
  %66 = load ptr, ptr %21, align 8, !tbaa !99
  %67 = icmp ne ptr %66, null
  br i1 %67, label %68, label %75

68:                                               ; preds = %65
  %69 = getelementptr inbounds nuw %class.Jipopt, ptr %25, i32 0, i32 1
  %70 = load ptr, ptr %69, align 8, !tbaa !16
  %71 = getelementptr inbounds nuw %class.Jipopt, ptr %25, i32 0, i32 8
  %72 = load ptr, ptr %71, align 8, !tbaa !30
  %73 = load i32, ptr %19, align 4, !tbaa !12
  %74 = load ptr, ptr %21, align 8, !tbaa !99
  call void @_ZN7JNIEnv_20SetDoubleArrayRegionEP13_jdoubleArrayiiPKd(ptr noundef nonnull align 8 dereferenceable(8) %70, ptr noundef %72, i32 noundef 0, i32 noundef %73, ptr noundef %74)
  br label %75

75:                                               ; preds = %68, %65
  %76 = getelementptr inbounds nuw %class.Jipopt, ptr %25, i32 0, i32 1
  %77 = load ptr, ptr %76, align 8, !tbaa !16
  %78 = getelementptr inbounds nuw %class.Jipopt, ptr %25, i32 0, i32 12
  %79 = load ptr, ptr %78, align 8, !tbaa !34
  call void @_ZN7JNIEnv_20GetDoubleArrayRegionEP13_jdoubleArrayiiPd(ptr noundef nonnull align 8 dereferenceable(8) %77, ptr noundef %79, i32 noundef 0, i32 noundef 1, ptr noundef %22)
  ret void
}