; Function Attrs: mustprogress uwtable
define void @_ZN6Jipopt17finalize_solutionEN5Ipopt12SolverReturnEiPKdS3_S3_iS3_S3_dPKNS0_9IpoptDataEPNS0_25IpoptCalculatedQuantitiesE(ptr noundef nonnull readonly align 8 captures(none) dereferenceable(232) %0, i32 %1, i32 noundef %2, ptr noundef %3, ptr noundef %4, ptr noundef %5, i32 noundef %6, ptr noundef %7, ptr noundef %8, double noundef %9, ptr readnone captures(none) %10, ptr readnone captures(none) %11) unnamed_addr #3 align 2 {
  %13 = alloca double, align 8
  store double %9, ptr %13, align 8, !tbaa !106
  %.not = icmp eq ptr %3, null
  br i1 %.not, label %22, label %14

14:                                               ; preds = %12
  %15 = getelementptr inbounds nuw i8, ptr %0, i64 16
  %16 = load ptr, ptr %15, align 8, !tbaa !10
  %17 = getelementptr inbounds nuw i8, ptr %0, i64 80
  %18 = load ptr, ptr %17, align 8, !tbaa !94
  %19 = load ptr, ptr %16, align 8, !tbaa !48
  %20 = getelementptr inbounds nuw i8, ptr %19, i64 1712
  %21 = load ptr, ptr %20, align 8, !tbaa !98
  tail call void %21(ptr noundef nonnull align 8 dereferenceable(8) %16, ptr noundef %18, i32 noundef 0, i32 noundef %2, ptr noundef nonnull %3)
  br label %22

22:                                               ; preds = %14, %12
  %.not19 = icmp eq ptr %4, null
  br i1 %.not19, label %31, label %23

23:                                               ; preds = %22
  %24 = getelementptr inbounds nuw i8, ptr %0, i64 16
  %25 = load ptr, ptr %24, align 8, !tbaa !10
  %26 = getelementptr inbounds nuw i8, ptr %0, i64 64
  %27 = load ptr, ptr %26, align 8, !tbaa !95
  %28 = load ptr, ptr %25, align 8, !tbaa !48
  %29 = getelementptr inbounds nuw i8, ptr %28, i64 1712
  %30 = load ptr, ptr %29, align 8, !tbaa !98
  tail call void %30(ptr noundef nonnull align 8 dereferenceable(8) %25, ptr noundef %27, i32 noundef 0, i32 noundef %2, ptr noundef nonnull %4)
  br label %31

31:                                               ; preds = %23, %22
  %.not20 = icmp eq ptr %5, null
  br i1 %.not20, label %40, label %32

32:                                               ; preds = %31
  %33 = getelementptr inbounds nuw i8, ptr %0, i64 16
  %34 = load ptr, ptr %33, align 8, !tbaa !10
  %35 = getelementptr inbounds nuw i8, ptr %0, i64 72
  %36 = load ptr, ptr %35, align 8, !tbaa !96
  %37 = load ptr, ptr %34, align 8, !tbaa !48
  %38 = getelementptr inbounds nuw i8, ptr %37, i64 1712
  %39 = load ptr, ptr %38, align 8, !tbaa !98
  tail call void %39(ptr noundef nonnull align 8 dereferenceable(8) %34, ptr noundef %36, i32 noundef 0, i32 noundef %2, ptr noundef nonnull %5)
  br label %40

40:                                               ; preds = %32, %31
  %.not21 = icmp eq ptr %7, null
  br i1 %.not21, label %49, label %41

41:                                               ; preds = %40
  %42 = getelementptr inbounds nuw i8, ptr %0, i64 16
  %43 = load ptr, ptr %42, align 8, !tbaa !10
  %44 = getelementptr inbounds nuw i8, ptr %0, i64 104
  %45 = load ptr, ptr %44, align 8, !tbaa !101
  %46 = load ptr, ptr %43, align 8, !tbaa !48
  %47 = getelementptr inbounds nuw i8, ptr %46, i64 1712
  %48 = load ptr, ptr %47, align 8, !tbaa !98
  tail call void %48(ptr noundef nonnull align 8 dereferenceable(8) %43, ptr noundef %45, i32 noundef 0, i32 noundef %6, ptr noundef nonnull %7)
  br label %49

49:                                               ; preds = %41, %40
  %.not22 = icmp eq ptr %8, null
  br i1 %.not22, label %58, label %50

50:                                               ; preds = %49
  %51 = getelementptr inbounds nuw i8, ptr %0, i64 16
  %52 = load ptr, ptr %51, align 8, !tbaa !10
  %53 = getelementptr inbounds nuw i8, ptr %0, i64 56
  %54 = load ptr, ptr %53, align 8, !tbaa !97
  %55 = load ptr, ptr %52, align 8, !tbaa !48
  %56 = getelementptr inbounds nuw i8, ptr %55, i64 1712
  %57 = load ptr, ptr %56, align 8, !tbaa !98
  tail call void %57(ptr noundef nonnull align 8 dereferenceable(8) %52, ptr noundef %54, i32 noundef 0, i32 noundef %6, ptr noundef nonnull %8)
  br label %58

58:                                               ; preds = %50, %49
  %59 = getelementptr inbounds nuw i8, ptr %0, i64 16
  %60 = load ptr, ptr %59, align 8, !tbaa !10
  %61 = getelementptr inbounds nuw i8, ptr %0, i64 88
  %62 = load ptr, ptr %61, align 8, !tbaa !99
  %63 = load ptr, ptr %60, align 8, !tbaa !48
  %64 = getelementptr inbounds nuw i8, ptr %63, i64 1648
  %65 = load ptr, ptr %64, align 8, !tbaa !92
  call void %65(ptr noundef nonnull align 8 dereferenceable(8) %60, ptr noundef %62, i32 noundef 0, i32 noundef 1, ptr noundef nonnull %13)
  ret void
}